target datalayout = "e-m:e-p270:32:32-p271:32:32-p272:64:64-i64:64-i128:128-f80:128-n8:16:32:64-S128"
target triple = "x86_64-pc-linux-gnu"

%struct.AVOutputFormat = type { ptr, ptr, ptr, ptr, i32, i32, i32, i32, ptr, ptr }

@.str.37 = private unnamed_addr constant [2 x i8] c"=\00", align 1
@.str.38 = private unnamed_addr constant [2 x i8] c":\00", align 1
@.str.59 = private unnamed_addr constant [30 x i8] c"Assertion %s failed at %s:%d\0A\00", align 1
@.str.61 = private unnamed_addr constant [21 x i8] c"fftools/opt_common.c\00", align 1
@.str.176 = private unnamed_addr constant [12 x i8] c"dev && opts\00", align 1
@.str.177 = private unnamed_addr constant [99 x i8] c"\0ADevice name is not provided.\0AYou can pass devicename[,opt1=val1[,opt2=val2...]] as an argument.\0A\0A\00", align 1

; Function Attrs: nounwind uwtable
define internal i32 @show_sinks_sources_parse_arg(ptr noundef %0, ptr noundef %1, ptr noundef %2) #0 {
  %4 = alloca i32, align 4
  %5 = alloca ptr, align 8
  %6 = alloca ptr, align 8
  %7 = alloca ptr, align 8
  %8 = alloca i32, align 4
  %9 = alloca ptr, align 8
  %10 = alloca i32, align 4
  store ptr %0, ptr %5, align 8, !tbaa !8
  store ptr %1, ptr %6, align 8, !tbaa !12
  store ptr %2, ptr %7, align 8, !tbaa !158
  call void @llvm.lifetime.start.p0(i64 4, ptr %8) #11
  %11 = load ptr, ptr %5, align 8, !tbaa !8
  %12 = icmp ne ptr %11, null
  br i1 %12, label %13, label %57

13:                                               ; preds = %3
  call void @llvm.lifetime.start.p0(i64 8, ptr %9) #11
  store ptr null, ptr %9, align 8, !tbaa !8
  br label %14

14:                                               ; preds = %13
  %15 = load ptr, ptr %6, align 8, !tbaa !12
  %16 = icmp ne ptr %15, null
  br i1 %16, label %17, label %20

17:                                               ; preds = %14
  %18 = load ptr, ptr %7, align 8, !tbaa !158
  %19 = icmp ne ptr %18, null
  br i1 %19, label %21, label %20

20:                                               ; preds = %17, %14
  call void (ptr, i32, ptr, ...) @av_log(ptr noundef null, i32 noundef 0, ptr noundef @.str.59, ptr noundef @.str.176, ptr noundef @.str.61, i32 noundef 1413)
  call void @abort() #13
  unreachable

21:                                               ; preds = %17
  br label %22

22:                                               ; preds = %21
  br label %23

23:                                               ; preds = %22
  %24 = load ptr, ptr %5, align 8, !tbaa !8
  %25 = call noalias ptr @av_strdup(ptr noundef %24)
  %26 = load ptr, ptr %6, align 8, !tbaa !12
  store ptr %25, ptr %26, align 8, !tbaa !8
  %27 = load ptr, ptr %6, align 8, !tbaa !12
  %28 = load ptr, ptr %27, align 8, !tbaa !8
  %29 = icmp ne ptr %28, null
  br i1 %29, label %31, label %30

30:                                               ; preds = %23
  store i32 -12, ptr %4, align 4
  store i32 1, ptr %10, align 4
  br label %54

31:                                               ; preds = %23
  %32 = load ptr, ptr %6, align 8, !tbaa !12
  %33 = load ptr, ptr %32, align 8, !tbaa !8
  %34 = call ptr @strchr(ptr noundef %33, i32 noundef 44) #12
  store ptr %34, ptr %9, align 8, !tbaa !8
  %35 = icmp ne ptr %34, null
  br i1 %35, label %36, label %53

36:                                               ; preds = %31
  %37 = load ptr, ptr %9, align 8, !tbaa !8
  %38 = getelementptr inbounds nuw i8, ptr %37, i32 1
  store ptr %38, ptr %9, align 8, !tbaa !8
  store i8 0, ptr %37, align 1, !tbaa !17
  %39 = load ptr, ptr %9, align 8, !tbaa !8
  %40 = getelementptr inbounds i8, ptr %39, i64 0
  %41 = load i8, ptr %40, align 1, !tbaa !17
  %42 = sext i8 %41 to i32
  %43 = icmp ne i32 %42, 0
  br i1 %43, label %44, label %52

44:                                               ; preds = %36
  %45 = load ptr, ptr %7, align 8, !tbaa !158
  %46 = load ptr, ptr %9, align 8, !tbaa !8
  %47 = call i32 @av_dict_parse_string(ptr noundef %45, ptr noundef %46, ptr noundef @.str.37, ptr noundef @.str.38, i32 noundef 0)
  store i32 %47, ptr %8, align 4, !tbaa !10
  %48 = icmp slt i32 %47, 0
  br i1 %48, label %49, label %52

49:                                               ; preds = %44
  %50 = load ptr, ptr %6, align 8, !tbaa !12
  call void @av_freep(ptr noundef %50)
  %51 = load i32, ptr %8, align 4, !tbaa !10
  store i32 %51, ptr %4, align 4
  store i32 1, ptr %10, align 4
  br label %54

52:                                               ; preds = %44, %36
  br label %53

53:                                               ; preds = %52, %31
  store i32 0, ptr %10, align 4
  br label %54

54:                                               ; preds = %53, %49, %30
  call void @llvm.lifetime.end.p0(i64 8, ptr %9) #11
  %55 = load i32, ptr %10, align 4
  switch i32 %55, label %60 [
    i32 0, label %56
  ]

56:                                               ; preds = %54
  br label %59

57:                                               ; preds = %3
  %58 = call i32 (ptr, ...) @printf(ptr noundef @.str.177)
  br label %59

59:                                               ; preds = %57, %56
  store i32 0, ptr %4, align 4
  store i32 1, ptr %10, align 4
  br label %60

60:                                               ; preds = %59, %54
  call void @llvm.lifetime.end.p0(i64 4, ptr %8) #11
  %61 = load i32, ptr %4, align 4
  ret i32 %61
}

; Function Attrs: nounwind uwtable
define i32 @show_sinks(ptr noundef %0, ptr noundef %1, ptr noundef %2) #0 {
  %4 = alloca ptr, align 8
  %5 = alloca ptr, align 8
  %6 = alloca ptr, align 8
  %7 = alloca ptr, align 8
  %8 = alloca ptr, align 8
  %9 = alloca ptr, align 8
  %10 = alloca i32, align 4
  %11 = alloca i32, align 4
  store ptr %0, ptr %4, align 8, !tbaa !4
  store ptr %1, ptr %5, align 8, !tbaa !8
  store ptr %2, ptr %6, align 8, !tbaa !8
  call void @llvm.lifetime.start.p0(i64 8, ptr %7) #11
  store ptr null, ptr %7, align 8, !tbaa !39
  call void @llvm.lifetime.start.p0(i64 8, ptr %8) #11
  store ptr null, ptr %8, align 8, !tbaa !8
  call void @llvm.lifetime.start.p0(i64 8, ptr %9) #11
  store ptr null, ptr %9, align 8, !tbaa !154
  call void @llvm.lifetime.start.p0(i64 4, ptr %10) #11
  store i32 0, ptr %10, align 4, !tbaa !10
  call void @llvm.lifetime.start.p0(i64 4, ptr %11) #11
  %12 = call i32 @av_log_get_level()
  store i32 %12, ptr %11, align 4, !tbaa !10
  call void @av_log_set_level(i32 noundef 24)
  %13 = load ptr, ptr %6, align 8, !tbaa !8
  %14 = call i32 @show_sinks_sources_parse_arg(ptr noundef %13, ptr noundef %8, ptr noundef %9)
  store i32 %14, ptr %10, align 4, !tbaa !10
  %15 = icmp slt i32 %14, 0
  br i1 %15, label %16, label %17

16:                                               ; preds = %3
  br label %68

17:                                               ; preds = %3
  br label %18

18:                                               ; preds = %39, %17
  %19 = load ptr, ptr %7, align 8, !tbaa !39
  %20 = call ptr @av_output_audio_device_next(ptr noundef %19)
  store ptr %20, ptr %7, align 8, !tbaa !39
  %21 = load ptr, ptr %7, align 8, !tbaa !39
  %22 = icmp ne ptr %21, null
  br i1 %22, label %23, label %38

23:                                               ; preds = %18
  %24 = load ptr, ptr %8, align 8, !tbaa !8
  %25 = icmp ne ptr %24, null
  br i1 %25, label %26, label %34

26:                                               ; preds = %23
  %27 = load ptr, ptr %8, align 8, !tbaa !8
  %28 = load ptr, ptr %7, align 8, !tbaa !39
  %29 = getelementptr inbounds nuw %struct.AVOutputFormat, ptr %28, i32 0, i32 0
  %30 = load ptr, ptr %29, align 8, !tbaa !41
  %31 = call i32 @av_match_name(ptr noundef %27, ptr noundef %30)
  %32 = icmp ne i32 %31, 0
  br i1 %32, label %34, label %33

33:                                               ; preds = %26
  br label %39

34:                                               ; preds = %26, %23
  %35 = load ptr, ptr %7, align 8, !tbaa !39
  %36 = load ptr, ptr %9, align 8, !tbaa !154
  %37 = call i32 @print_device_sinks(ptr noundef %35, ptr noundef %36)
  br label %38

38:                                               ; preds = %34, %18
  br label %39

39:                                               ; preds = %38, %33
  %40 = load ptr, ptr %7, align 8, !tbaa !39
  %41 = icmp ne ptr %40, null
  br i1 %41, label %18, label %42, !llvm.loop !165

42:                                               ; preds = %39
  br label %43

43:                                               ; preds = %64, %42
  %44 = load ptr, ptr %7, align 8, !tbaa !39
  %45 = call ptr @av_output_video_device_next(ptr noundef %44)
  store ptr %45, ptr %7, align 8, !tbaa !39
  %46 = load ptr, ptr %7, align 8, !tbaa !39
  %47 = icmp ne ptr %46, null
  br i1 %47, label %48, label %63

48:                                               ; preds = %43
  %49 = load ptr, ptr %8, align 8, !tbaa !8
  %50 = icmp ne ptr %49, null
  br i1 %50, label %51, label %59

51:                                               ; preds = %48
  %52 = load ptr, ptr %8, align 8, !tbaa !8
  %53 = load ptr, ptr %7, align 8, !tbaa !39
  %54 = getelementptr inbounds nuw %struct.AVOutputFormat, ptr %53, i32 0, i32 0
  %55 = load ptr, ptr %54, align 8, !tbaa !41
  %56 = call i32 @av_match_name(ptr noundef %52, ptr noundef %55)
  %57 = icmp ne i32 %56, 0
  br i1 %57, label %59, label %58

58:                                               ; preds = %51
  br label %64

59:                                               ; preds = %51, %48
  %60 = load ptr, ptr %7, align 8, !tbaa !39
  %61 = load ptr, ptr %9, align 8, !tbaa !154
  %62 = call i32 @print_device_sinks(ptr noundef %60, ptr noundef %61)
  br label %63

63:                                               ; preds = %59, %43
  br label %64

64:                                               ; preds = %63, %58
  %65 = load ptr, ptr %7, align 8, !tbaa !39
  %66 = icmp ne ptr %65, null
  br i1 %66, label %43, label %67, !llvm.loop !166

67:                                               ; preds = %64
  br label %68

68:                                               ; preds = %67, %16
  call void @av_dict_free(ptr noundef %9)
  %69 = load ptr, ptr %8, align 8, !tbaa !8
  call void @av_free(ptr noundef %69)
  %70 = load i32, ptr %11, align 4, !tbaa !10
  call void @av_log_set_level(i32 noundef %70)
  %71 = load i32, ptr %10, align 4, !tbaa !10
  call void @llvm.lifetime.end.p0(i64 4, ptr %11) #11
  call void @llvm.lifetime.end.p0(i64 4, ptr %10) #11
  call void @llvm.lifetime.end.p0(i64 8, ptr %9) #11
  call void @llvm.lifetime.end.p0(i64 8, ptr %8) #11
  call void @llvm.lifetime.end.p0(i64 8, ptr %7) #11
  ret i32 %71
}