; Function Attrs: nounwind uwtable
define range(i32 -2147483648, 1) i32 @show_sinks(ptr noundef readnone captures(none) %0, ptr noundef readnone captures(none) %1, ptr noundef %2) local_unnamed_addr #2 {
  %4 = alloca ptr, align 8
  %5 = alloca ptr, align 8
  call void @llvm.lifetime.start.p0(i64 8, ptr nonnull %4) #17
  store ptr null, ptr %4, align 8, !tbaa !13
  call void @llvm.lifetime.start.p0(i64 8, ptr nonnull %5) #17
  store ptr null, ptr %5, align 8, !tbaa !128
  %6 = tail call i32 @av_log_get_level() #17
  tail call void @av_log_set_level(i32 noundef 24) #17
  %.not.i = icmp eq ptr %2, null
  br i1 %.not.i, label %18, label %7

7:                                                ; preds = %3
  %8 = tail call noalias ptr @av_strdup(ptr noundef nonnull %2) #17
  store ptr %8, ptr %4, align 8, !tbaa !13
  %.not22.i = icmp eq ptr %8, null
  br i1 %.not22.i, label %.critedge24, label %9

9:                                                ; preds = %7
  %10 = tail call ptr @strchr(ptr noundef nonnull dereferenceable(1) %8, i32 noundef 44) #18
  %.not23.i = icmp eq ptr %10, null
  br i1 %.not23.i, label %show_sinks_sources_parse_arg.exit, label %11

11:                                               ; preds = %9
  %12 = getelementptr inbounds nuw i8, ptr %10, i64 1
  store i8 0, ptr %10, align 1, !tbaa !8
  %13 = load i8, ptr %12, align 1, !tbaa !8
  %.not24.i = icmp eq i8 %13, 0
  br i1 %.not24.i, label %show_sinks_sources_parse_arg.exit, label %14

14:                                               ; preds = %11
  %15 = call i32 @av_dict_parse_string(ptr noundef nonnull %5, ptr noundef nonnull %12, ptr noundef nonnull @.str.37, ptr noundef nonnull @.str.38, i32 noundef 0) #17
  %16 = icmp slt i32 %15, 0
  br i1 %16, label %17, label %show_sinks_sources_parse_arg.exit

17:                                               ; preds = %14
  call void @av_freep(ptr noundef nonnull %4) #17
  br label %.critedge24

18:                                               ; preds = %3
  %puts.i = tail call i32 @puts(ptr nonnull dereferenceable(1) @str.16)
  br label %show_sinks_sources_parse_arg.exit

show_sinks_sources_parse_arg.exit:                ; preds = %9, %11, %14, %18
  %19 = phi ptr [ %8, %9 ], [ %8, %11 ], [ %8, %14 ], [ null, %18 ]
  %20 = call ptr @av_output_audio_device_next(ptr noundef null) #17
  %.not27 = icmp eq ptr %20, null
  br i1 %.not27, label %.critedge.preheader, label %.lr.ph.preheader

.lr.ph.preheader:                                 ; preds = %show_sinks_sources_parse_arg.exit
  %.not18 = icmp eq ptr %19, null
  br label %.lr.ph

.critedge.preheader:                              ; preds = %28, %show_sinks_sources_parse_arg.exit
  %21 = call ptr @av_output_video_device_next(ptr noundef null) #17
  %.not2028 = icmp eq ptr %21, null
  br i1 %.not2028, label %.critedge24, label %.lr.ph29.preheader

.lr.ph29.preheader:                               ; preds = %.critedge.preheader
  %.not21 = icmp eq ptr %19, null
  br label %.lr.ph29

.lr.ph:                                           ; preds = %.lr.ph.preheader, %28
  %22 = phi ptr [ %29, %28 ], [ %20, %.lr.ph.preheader ]
  br i1 %.not18, label %26, label %23

23:                                               ; preds = %.lr.ph
  %24 = load ptr, ptr %22, align 8, !tbaa !24
  %25 = call i32 @av_match_name(ptr noundef nonnull %19, ptr noundef %24) #17
  %.not19 = icmp eq i32 %25, 0
  br i1 %.not19, label %28, label %26

26:                                               ; preds = %23, %.lr.ph
  %27 = load ptr, ptr %5, align 8, !tbaa !128
  call fastcc void @print_device_sinks(ptr noundef %22, ptr noundef %27)
  br label %28

28:                                               ; preds = %26, %23
  %29 = call ptr @av_output_audio_device_next(ptr noundef nonnull %22) #17
  %.not = icmp eq ptr %29, null
  br i1 %.not, label %.critedge.preheader, label %.lr.ph, !llvm.loop !134

.lr.ph29:                                         ; preds = %.lr.ph29.preheader, %.critedge
  %30 = phi ptr [ %36, %.critedge ], [ %21, %.lr.ph29.preheader ]
  br i1 %.not21, label %34, label %31

31:                                               ; preds = %.lr.ph29
  %32 = load ptr, ptr %30, align 8, !tbaa !24
  %33 = call i32 @av_match_name(ptr noundef nonnull %19, ptr noundef %32) #17
  %.not22 = icmp eq i32 %33, 0
  br i1 %.not22, label %.critedge, label %34

34:                                               ; preds = %31, %.lr.ph29
  %35 = load ptr, ptr %5, align 8, !tbaa !128
  call fastcc void @print_device_sinks(ptr noundef %30, ptr noundef %35)
  br label %.critedge

.critedge:                                        ; preds = %34, %31
  %36 = call ptr @av_output_video_device_next(ptr noundef nonnull %30) #17
  %.not20 = icmp eq ptr %36, null
  br i1 %.not20, label %.critedge24, label %.lr.ph29, !llvm.loop !135

.critedge24:                                      ; preds = %.critedge, %.critedge.preheader, %7, %17
  %.1.i26 = phi i32 [ -12, %7 ], [ %15, %17 ], [ 0, %.critedge.preheader ], [ 0, %.critedge ]
  call void @av_dict_free(ptr noundef nonnull %5) #17
  %37 = load ptr, ptr %4, align 8, !tbaa !13
  call void @av_free(ptr noundef %37) #17
  call void @av_log_set_level(i32 noundef %6) #17
  call void @llvm.lifetime.end.p0(i64 8, ptr nonnull %5) #17
  call void @llvm.lifetime.end.p0(i64 8, ptr nonnull %4) #17
  ret i32 %.1.i26
}